; Function Attrs: mustprogress nounwind uwtable
define dso_local void @_ZN11cmXMLParserD2Ev(ptr noundef nonnull align 8 dereferenceable(40) %0) unnamed_addr #4 align 2 personality ptr @__gxx_personality_v0 {
  store ptr getelementptr inbounds ({ [16 x ptr] }, ptr @_ZTV11cmXMLParser, i64 0, i32 0, i64 2), ptr %0, align 8
  %2 = getelementptr inbounds i8, ptr %0, i64 32
  %3 = load ptr, ptr %2, align 8
  %.not = icmp eq ptr %3, null
  br i1 %.not, label %14, label %4

4:                                                ; preds = %1
  %5 = getelementptr inbounds i8, ptr %0, i64 8
  %6 = load i32, ptr %5, align 8
  %.not5.i = icmp eq i32 %6, 0
  br i1 %.not5.i, label %7, label %.noexc3

7:                                                ; preds = %4
  %8 = invoke i32 @XML_Parse(ptr noundef nonnull %3, ptr noundef nonnull @.str.2, i32 noundef 0, i32 noundef 1)
          to label %.noexc2 unwind label %15

.noexc2:                                          ; preds = %7
  %.not6.i = icmp eq i32 %8, 0
  br i1 %.not6.i, label %9, label %.noexc3

9:                                                ; preds = %.noexc2
  %10 = load ptr, ptr %0, align 8
  %11 = getelementptr inbounds i8, ptr %10, i64 88
  %12 = load ptr, ptr %11, align 8
  invoke void %12(ptr noundef nonnull align 8 dereferenceable(40) %0)
          to label %.noexc3 unwind label %15

.noexc3:                                          ; preds = %9, %.noexc2, %4
  %13 = load ptr, ptr %2, align 8
  invoke void @XML_ParserFree(ptr noundef %13)
          to label %_ZN11cmXMLParser13CleanupParserEv.exit unwind label %15

_ZN11cmXMLParser13CleanupParserEv.exit:           ; preds = %.noexc3
  store ptr null, ptr %2, align 8
  br label %14

14:                                               ; preds = %_ZN11cmXMLParser13CleanupParserEv.exit, %1
  ret void

15:                                               ; preds = %.noexc3, %9, %7
  %16 = landingpad { ptr, i32 }
          catch ptr null
  %17 = extractvalue { ptr, i32 } %16, 0
  tail call void @__clang_call_terminate(ptr %17) #14
  unreachable
}